target datalayout = "e-m:e-p270:32:32-p271:32:32-p272:64:64-i64:64-i128:128-f80:128-n8:16:32:64-S128"
target triple = "x86_64-unknown-linux-gnu"

%"class.net::ReliableQuicStream" = type <{ ptr, %"class.std::__cxx11::list", i64, %"class.net::QuicStreamSequencer", i32, [4 x i8], ptr, i64, i64, i32, i32, i8, i8, i8, i8, i8, i8, i8, i8, i32, [4 x i8], %"class.net::QuicFlowController", ptr, i8, [7 x i8] }>
%"class.std::__cxx11::list" = type { %"class.std::__cxx11::_List_base" }
%"class.std::__cxx11::_List_base" = type { %"struct.std::__cxx11::_List_base<net::ReliableQuicStream::PendingData, std::allocator<net::ReliableQuicStream::PendingData>>::_List_impl" }
%"struct.std::__cxx11::_List_base<net::ReliableQuicStream::PendingData, std::allocator<net::ReliableQuicStream::PendingData>>::_List_impl" = type { %"struct.std::__detail::_List_node_header" }
%"struct.std::__detail::_List_node_header" = type { %"struct.std::__detail::_List_node_base", i64 }
%"struct.std::__detail::_List_node_base" = type { ptr, ptr }
%"class.net::QuicStreamSequencer" = type <{ ptr, ptr, %"class.net::QuicStreamSequencerBuffer", i64, i8, [3 x i8], i32, i32, [4 x i8], ptr, i8, [7 x i8] }>
%"class.net::QuicStreamSequencerBuffer" = type { i64, i64, i64, %"class.std::__cxx11::list.3", i8, %"class.std::unique_ptr", i64, %"class.std::map" }
%"class.std::__cxx11::list.3" = type { %"class.std::__cxx11::_List_base.4" }
%"class.std::__cxx11::_List_base.4" = type { %"struct.std::__cxx11::_List_base<net::QuicStreamSequencerBuffer::Gap, std::allocator<net::QuicStreamSequencerBuffer::Gap>>::_List_impl" }
%"struct.std::__cxx11::_List_base<net::QuicStreamSequencerBuffer::Gap, std::allocator<net::QuicStreamSequencerBuffer::Gap>>::_List_impl" = type { %"struct.std::__detail::_List_node_header" }
%"class.std::unique_ptr" = type { %"struct.std::__uniq_ptr_data" }
%"struct.std::__uniq_ptr_data" = type { %"class.std::__uniq_ptr_impl" }
%"class.std::__uniq_ptr_impl" = type { %"class.std::tuple" }
%"class.std::tuple" = type { %"struct.std::_Tuple_impl" }
%"struct.std::_Tuple_impl" = type { %"struct.std::_Head_base.9" }
%"struct.std::_Head_base.9" = type { ptr }
%"class.std::map" = type { %"class.std::_Rb_tree" }
%"class.std::_Rb_tree" = type { %"struct.std::_Rb_tree<unsigned long, std::pair<const unsigned long, net::QuicStreamSequencerBuffer::FrameInfo>, std::_Select1st<std::pair<const unsigned long, net::QuicStreamSequencerBuffer::FrameInfo>>, std::less<unsigned long>>::_Rb_tree_impl" }
%"struct.std::_Rb_tree<unsigned long, std::pair<const unsigned long, net::QuicStreamSequencerBuffer::FrameInfo>, std::_Select1st<std::pair<const unsigned long, net::QuicStreamSequencerBuffer::FrameInfo>>, std::less<unsigned long>>::_Rb_tree_impl" = type { %"struct.std::_Rb_tree_key_compare", %"struct.std::_Rb_tree_header" }
%"struct.std::_Rb_tree_key_compare" = type { %"struct.std::less" }
%"struct.std::less" = type { i8 }
%"struct.std::_Rb_tree_header" = type { %"struct.std::_Rb_tree_node_base", i64 }
%"struct.std::_Rb_tree_node_base" = type { i32, ptr, ptr, ptr }
%"class.net::QuicFlowController" = type { ptr, i32, i32, i64, i64, i64, i64, i64, i64, i64, i8, i64, %"class.net::QuicTime" }
%"class.net::QuicTime" = type { i64 }

; Function Attrs: mustprogress uwtable
define dso_local void @_ZN3net18ReliableQuicStream16AddBytesConsumedEm(ptr noundef nonnull align 8 dereferenceable(377) %this, i64 noundef %bytes) #0 align 2 {
entry:
  %this.addr = alloca ptr, align 8
  %bytes.addr = alloca i64, align 8
  store ptr %this, ptr %this.addr, align 8
  store i64 %bytes, ptr %bytes.addr, align 8
  %this1 = load ptr, ptr %this.addr, align 8
  %read_side_closed_ = getelementptr inbounds %"class.net::ReliableQuicStream", ptr %this1, i32 0, i32 11
  %0 = load i8, ptr %read_side_closed_, align 8
  %tobool = trunc i8 %0 to i1
  br i1 %tobool, label %if.end, label %if.then

if.then:                                          ; preds = %entry
  %flow_controller_ = getelementptr inbounds %"class.net::ReliableQuicStream", ptr %this1, i32 0, i32 21
  %1 = load i64, ptr %bytes.addr, align 8
  call void @_ZN3net18QuicFlowController16AddBytesConsumedEm(ptr noundef nonnull align 8 dereferenceable(96) %flow_controller_, i64 noundef %1)
  br label %if.end

if.end:                                           ; preds = %if.then, %entry
  %stream_contributes_to_connection_flow_control_ = getelementptr inbounds %"class.net::ReliableQuicStream", ptr %this1, i32 0, i32 23
  %2 = load i8, ptr %stream_contributes_to_connection_flow_control_, align 8
  %tobool2 = trunc i8 %2 to i1
  br i1 %tobool2, label %if.then3, label %if.end4

if.then3:                                         ; preds = %if.end
  %connection_flow_controller_ = getelementptr inbounds %"class.net::ReliableQuicStream", ptr %this1, i32 0, i32 22
  %3 = load ptr, ptr %connection_flow_controller_, align 8
  %4 = load i64, ptr %bytes.addr, align 8
  call void @_ZN3net18QuicFlowController16AddBytesConsumedEm(ptr noundef nonnull align 8 dereferenceable(96) %3, i64 noundef %4)
  br label %if.end4

if.end4:                                          ; preds = %if.then3, %if.end
  ret void
}

; Function Attrs: mustprogress nounwind uwtable
define linkonce_odr dso_local noundef i64 @_ZNK3net18QuicFlowController14bytes_consumedEv(ptr noundef nonnull align 8 dereferenceable(96) %this) #2 comdat align 2 {
entry:
  %this.addr = alloca ptr, align 8
  store ptr %this, ptr %this.addr, align 8
  %this1 = load ptr, ptr %this.addr, align 8
  %bytes_consumed_ = getelementptr inbounds %"class.net::QuicFlowController", ptr %this1, i32 0, i32 5
  %0 = load i64, ptr %bytes_consumed_, align 8
  ret i64 %0
}

; Function Attrs: mustprogress nounwind uwtable
define linkonce_odr dso_local noundef i64 @_ZNK3net18QuicFlowController28highest_received_byte_offsetEv(ptr noundef nonnull align 8 dereferenceable(96) %this) #2 comdat align 2 {
entry:
  %this.addr = alloca ptr, align 8
  store ptr %this, ptr %this.addr, align 8
  %this1 = load ptr, ptr %this.addr, align 8
  %highest_received_byte_offset_ = getelementptr inbounds %"class.net::QuicFlowController", ptr %this1, i32 0, i32 6
  %0 = load i64, ptr %highest_received_byte_offset_, align 8
  ret i64 %0
}

; Function Attrs: mustprogress nounwind uwtable
define linkonce_odr dso_local noundef i32 @_ZNK3net18ReliableQuicStream2idEv(ptr noundef nonnull align 8 dereferenceable(377) %this) #2 comdat align 2 {
entry:
  %this.addr = alloca ptr, align 8
  store ptr %this, ptr %this.addr, align 8
  %this1 = load ptr, ptr %this.addr, align 8
  %id_ = getelementptr inbounds %"class.net::ReliableQuicStream", ptr %this1, i32 0, i32 4
  %0 = load i32, ptr %id_, align 8
  ret i32 %0
}

; Function Attrs: mustprogress uwtable
define dso_local void @_ZN3net18ReliableQuicStream13CloseReadSideEv(ptr noundef nonnull align 8 dereferenceable(377) %this) #0 align 2 {
entry:
  %this.addr = alloca ptr, align 8
  store ptr %this, ptr %this.addr, align 8
  %this1 = load ptr, ptr %this.addr, align 8
  %read_side_closed_ = getelementptr inbounds %"class.net::ReliableQuicStream", ptr %this1, i32 0, i32 11
  %0 = load i8, ptr %read_side_closed_, align 8
  %tobool = trunc i8 %0 to i1
  br i1 %tobool, label %if.then, label %if.end

if.then:                                          ; preds = %entry
  br label %if.end5

if.end:                                           ; preds = %entry
  %read_side_closed_2 = getelementptr inbounds %"class.net::ReliableQuicStream", ptr %this1, i32 0, i32 11
  store i8 1, ptr %read_side_closed_2, align 8
  %sequencer_ = getelementptr inbounds %"class.net::ReliableQuicStream", ptr %this1, i32 0, i32 3
  call void @_ZN3net19QuicStreamSequencer13ReleaseBufferEv(ptr noundef nonnull align 8 dereferenceable(169) %sequencer_)
  %write_side_closed_ = getelementptr inbounds %"class.net::ReliableQuicStream", ptr %this1, i32 0, i32 12
  %1 = load i8, ptr %write_side_closed_, align 1
  %tobool3 = trunc i8 %1 to i1
  br i1 %tobool3, label %if.then4, label %if.end5

if.then4:                                         ; preds = %if.end
  %session_ = getelementptr inbounds %"class.net::ReliableQuicStream", ptr %this1, i32 0, i32 6
  %2 = load ptr, ptr %session_, align 8
  %call = call noundef i32 @_ZNK3net18ReliableQuicStream2idEv(ptr noundef nonnull align 8 dereferenceable(377) %this1)
  %vtable = load ptr, ptr %2, align 8
  %vfn = getelementptr inbounds ptr, ptr %vtable, i64 22
  %3 = load ptr, ptr %vfn, align 8
  call void %3(ptr noundef nonnull align 8 dereferenceable(2044) %2, i32 noundef %call)
  br label %if.end5

if.end5:                                          ; preds = %if.then4, %if.end, %if.then
  ret void
}

; Function Attrs: mustprogress uwtable
define dso_local void @_ZN3net18ReliableQuicStream7OnCloseEv(ptr noundef nonnull align 8 dereferenceable(377) %this) unnamed_addr #0 align 2 {
entry:
  %this.addr = alloca ptr, align 8
  %bytes_to_consume = alloca i64, align 8
  store ptr %this, ptr %this.addr, align 8
  %this1 = load ptr, ptr %this.addr, align 8
  call void @_ZN3net18ReliableQuicStream13CloseReadSideEv(ptr noundef nonnull align 8 dereferenceable(377) %this1)
  %vtable = load ptr, ptr %this1, align 8
  %vfn = getelementptr inbounds ptr, ptr %vtable, i64 14
  %0 = load ptr, ptr %vfn, align 8
  call void %0(ptr noundef nonnull align 8 dereferenceable(377) %this1)
  %fin_sent_ = getelementptr inbounds %"class.net::ReliableQuicStream", ptr %this1, i32 0, i32 14
  %1 = load i8, ptr %fin_sent_, align 1
  %tobool = trunc i8 %1 to i1
  br i1 %tobool, label %if.end, label %land.lhs.true

land.lhs.true:                                    ; preds = %entry
  %rst_sent_ = getelementptr inbounds %"class.net::ReliableQuicStream", ptr %this1, i32 0, i32 16
  %2 = load i8, ptr %rst_sent_, align 1
  %tobool2 = trunc i8 %2 to i1
  br i1 %tobool2, label %if.end, label %if.then

if.then:                                          ; preds = %land.lhs.true
  %session_ = getelementptr inbounds %"class.net::ReliableQuicStream", ptr %this1, i32 0, i32 6
  %3 = load ptr, ptr %session_, align 8
  %call = call noundef i32 @_ZNK3net18ReliableQuicStream2idEv(ptr noundef nonnull align 8 dereferenceable(377) %this1)
  %stream_bytes_written_ = getelementptr inbounds %"class.net::ReliableQuicStream", ptr %this1, i32 0, i32 8
  %4 = load i64, ptr %stream_bytes_written_, align 8
  %vtable3 = load ptr, ptr %3, align 8
  %vfn4 = getelementptr inbounds ptr, ptr %vtable3, i64 21
  %5 = load ptr, ptr %vfn4, align 8
  call void %5(ptr noundef nonnull align 8 dereferenceable(2044) %3, i32 noundef %call, i32 noundef 7, i64 noundef %4)
  %rst_sent_5 = getelementptr inbounds %"class.net::ReliableQuicStream", ptr %this1, i32 0, i32 16
  store i8 1, ptr %rst_sent_5, align 1
  br label %if.end

if.end:                                           ; preds = %if.then, %land.lhs.true, %entry
  %flow_controller_ = getelementptr inbounds %"class.net::ReliableQuicStream", ptr %this1, i32 0, i32 21
  %call6 = call noundef i64 @_ZNK3net18QuicFlowController28highest_received_byte_offsetEv(ptr noundef nonnull align 8 dereferenceable(96) %flow_controller_)
  %flow_controller_7 = getelementptr inbounds %"class.net::ReliableQuicStream", ptr %this1, i32 0, i32 21
  %call8 = call noundef i64 @_ZNK3net18QuicFlowController14bytes_consumedEv(ptr noundef nonnull align 8 dereferenceable(96) %flow_controller_7)
  %sub = sub i64 %call6, %call8
  store i64 %sub, ptr %bytes_to_consume, align 8
  %6 = load i64, ptr %bytes_to_consume, align 8
  call void @_ZN3net18ReliableQuicStream16AddBytesConsumedEm(ptr noundef nonnull align 8 dereferenceable(377) %this1, i64 noundef %6)
  ret void
}