; Function Attrs: mustprogress uwtable
define dso_local void @_ZN3net18ReliableQuicStream7OnCloseEv(ptr noundef nonnull align 8 dereferenceable(377) %this) unnamed_addr #2 align 2 {
entry:
  %read_side_closed_.i = getelementptr inbounds i8, ptr %this, i64 256
  %0 = load i8, ptr %read_side_closed_.i, align 8
  %1 = and i8 %0, 1
  %tobool.not.i = icmp eq i8 %1, 0
  br i1 %tobool.not.i, label %if.end.i, label %_ZN3net18ReliableQuicStream13CloseReadSideEv.exit

if.end.i:                                         ; preds = %entry
  store i8 1, ptr %read_side_closed_.i, align 8
  %sequencer_.i = getelementptr inbounds i8, ptr %this, i64 40
  tail call void @_ZN3net19QuicStreamSequencer13ReleaseBufferEv(ptr noundef nonnull align 8 dereferenceable(169) %sequencer_.i)
  %write_side_closed_.i = getelementptr inbounds i8, ptr %this, i64 257
  %2 = load i8, ptr %write_side_closed_.i, align 1
  %3 = and i8 %2, 1
  %tobool3.not.i = icmp eq i8 %3, 0
  br i1 %tobool3.not.i, label %_ZN3net18ReliableQuicStream13CloseReadSideEv.exit, label %if.then4.i

if.then4.i:                                       ; preds = %if.end.i
  %session_.i = getelementptr inbounds i8, ptr %this, i64 224
  %4 = load ptr, ptr %session_.i, align 8
  %id_.i.i = getelementptr inbounds i8, ptr %this, i64 216
  %5 = load i32, ptr %id_.i.i, align 8
  %vtable.i = load ptr, ptr %4, align 8
  %vfn.i = getelementptr inbounds i8, ptr %vtable.i, i64 176
  %6 = load ptr, ptr %vfn.i, align 8
  tail call void %6(ptr noundef nonnull align 8 dereferenceable(2044) %4, i32 noundef %5)
  br label %_ZN3net18ReliableQuicStream13CloseReadSideEv.exit

_ZN3net18ReliableQuicStream13CloseReadSideEv.exit: ; preds = %entry, %if.end.i, %if.then4.i
  %vtable = load ptr, ptr %this, align 8
  %vfn = getelementptr inbounds i8, ptr %vtable, i64 112
  %7 = load ptr, ptr %vfn, align 8
  tail call void %7(ptr noundef nonnull align 8 dereferenceable(377) %this)
  %fin_sent_ = getelementptr inbounds i8, ptr %this, i64 259
  %8 = load i8, ptr %fin_sent_, align 1
  %9 = and i8 %8, 1
  %tobool.not = icmp eq i8 %9, 0
  br i1 %tobool.not, label %land.lhs.true, label %if.end

land.lhs.true:                                    ; preds = %_ZN3net18ReliableQuicStream13CloseReadSideEv.exit
  %rst_sent_ = getelementptr inbounds i8, ptr %this, i64 261
  %10 = load i8, ptr %rst_sent_, align 1
  %11 = and i8 %10, 1
  %tobool2.not = icmp eq i8 %11, 0
  br i1 %tobool2.not, label %if.then, label %if.end

if.then:                                          ; preds = %land.lhs.true
  %session_ = getelementptr inbounds i8, ptr %this, i64 224
  %12 = load ptr, ptr %session_, align 8
  %id_.i = getelementptr inbounds i8, ptr %this, i64 216
  %13 = load i32, ptr %id_.i, align 8
  %stream_bytes_written_ = getelementptr inbounds i8, ptr %this, i64 240
  %14 = load i64, ptr %stream_bytes_written_, align 8
  %vtable3 = load ptr, ptr %12, align 8
  %vfn4 = getelementptr inbounds i8, ptr %vtable3, i64 168
  %15 = load ptr, ptr %vfn4, align 8
  tail call void %15(ptr noundef nonnull align 8 dereferenceable(2044) %12, i32 noundef %13, i32 noundef 7, i64 noundef %14)
  store i8 1, ptr %rst_sent_, align 1
  br label %if.end

if.end:                                           ; preds = %if.then, %land.lhs.true, %_ZN3net18ReliableQuicStream13CloseReadSideEv.exit
  %highest_received_byte_offset_.i = getelementptr inbounds i8, ptr %this, i64 312
  %16 = load i64, ptr %highest_received_byte_offset_.i, align 8
  %bytes_consumed_.i = getelementptr inbounds i8, ptr %this, i64 304
  %17 = load i64, ptr %bytes_consumed_.i, align 8
  %sub = sub i64 %16, %17
  %18 = load i8, ptr %read_side_closed_.i, align 8
  %19 = and i8 %18, 1
  %tobool.not.i2 = icmp eq i8 %19, 0
  br i1 %tobool.not.i2, label %if.then.i, label %if.end.i3

if.then.i:                                        ; preds = %if.end
  %flow_controller_ = getelementptr inbounds i8, ptr %this, i64 272
  tail call void @_ZN3net18QuicFlowController16AddBytesConsumedEm(ptr noundef nonnull align 8 dereferenceable(96) %flow_controller_, i64 noundef %sub)
  br label %if.end.i3

if.end.i3:                                        ; preds = %if.then.i, %if.end
  %stream_contributes_to_connection_flow_control_.i = getelementptr inbounds i8, ptr %this, i64 376
  %20 = load i8, ptr %stream_contributes_to_connection_flow_control_.i, align 8
  %21 = and i8 %20, 1
  %tobool2.not.i = icmp eq i8 %21, 0
  br i1 %tobool2.not.i, label %_ZN3net18ReliableQuicStream16AddBytesConsumedEm.exit, label %if.then3.i

if.then3.i:                                       ; preds = %if.end.i3
  %connection_flow_controller_.i = getelementptr inbounds i8, ptr %this, i64 368
  %22 = load ptr, ptr %connection_flow_controller_.i, align 8
  tail call void @_ZN3net18QuicFlowController16AddBytesConsumedEm(ptr noundef nonnull align 8 dereferenceable(96) %22, i64 noundef %sub)
  br label %_ZN3net18ReliableQuicStream16AddBytesConsumedEm.exit

_ZN3net18ReliableQuicStream16AddBytesConsumedEm.exit: ; preds = %if.end.i3, %if.then3.i
  ret void
}